(lp0
S'/players/w/westbru01.html'
p1
aS'/players/w/whiteha01.html'
p2
aS'/players/h/hardeja01.html'
p3
aS'/players/h/hardeja01.html'
p4
aS'/players/a/abrinal01.html'
p5
aS'/players/a/acyqu01.html'
p6
aS'/players/a/acyqu01.html'
p7
aS'/players/a/acyqu01.html'
p8
aS'/players/a/adamsst01.html'
p9
aS'/players/a/afflaar01.html'
p10
aS'/players/a/ajincal01.html'
p11
aS'/players/a/aldrico01.html'
p12
aS'/players/a/aldrila01.html'
p13
aS'/players/a/allenla01.html'
p14
aS'/players/a/allento01.html'
p15
aS'/players/a/aminual01.html'
p16
aS'/players/a/anderch01.html'
p17
aS'/players/a/anderal01.html'
p18
aS'/players/a/anderju01.html'
p19
aS'/players/a/anderju01.html'
p20
aS'/players/a/anderju01.html'
p21
aS'/players/a/anderky01.html'
p22
aS'/players/a/anderry01.html'
p23
aS'/players/a/antetgi01.html'
p24
aS'/players/a/anthoca01.html'
p25
aS'/players/a/anthojo01.html'
p26
aS'/players/a/arizatr01.html'
p27
aS'/players/a/arthuda01.html'
p28
aS'/players/a/asikom01.html'
p29
aS'/players/a/augusdj01.html'
p30
aS'/players/b/babbilu01.html'
p31
aS'/players/b/bakerro01.html'
p32
aS'/players/b/baldwwa01.html'
p33
aS'/players/b/barbole01.html'
p34
aS'/players/b/bareajo01.html'
p35
aS'/players/b/barneha02.html'
p36
aS'/players/b/barnema02.html'
p37
aS'/players/b/barnema02.html'
p38
aS'/players/b/barnema02.html'
p39
aS'/players/b/bartowi01.html'
p40
aS'/players/b/bassbr01.html'
p41
aS'/players/b/batumni01.html'
p42
aS'/players/b/bayleje01.html'
p43
aS'/players/b/baynear01.html'
p44
aS'/players/b/bazemke01.html'
p45
aS'/players/b/bealbr01.html'
p46
aS'/players/b/beaslma01.html'
p47
aS'/players/b/beaslmi01.html'
p48
aS'/players/b/belinma01.html'
p49
aS'/players/b/bembrde01.html'
p50
aS'/players/b/bendedr01.html'
p51
aS'/players/b/bennean01.html'
p52
aS'/players/b/bentibe01.html'
p53
aS'/players/b/bertada01.html'
p54
aS'/players/b/beverpa01.html'
p55
aS'/players/b/biyombi01.html'
p56
aS'/players/b/bjeline01.html'
p57
aS'/players/b/blackta01.html'
p58
aS'/players/b/bledser01.html'
p59
aS'/players/b/bogdabo02.html'
p60
aS'/players/b/bogdabo02.html'
p61
aS'/players/b/bogdabo02.html'
p62
aS'/players/b/bogutan01.html'
p63
aS'/players/b/bogutan01.html'
p64
aS'/players/b/bogutan01.html'
p65
aS'/players/b/bolomjo01.html'
p66
aS'/players/b/bookede01.html'
p67
aS'/players/b/booketr01.html'
p68
aS'/players/b/bradlav01.html'
p69
aS'/players/b/breweco01.html'
p70
aS'/players/b/breweco01.html'
p71
aS'/players/b/breweco01.html'
p72
aS'/players/b/brogdma01.html'
p73
aS'/players/b/brookaa01.html'
p74
aS'/players/b/brownan02.html'
p75
aS'/players/b/brownan02.html'
p76
aS'/players/b/brownan02.html'
p77
aS'/players/b/brownbo02.html'
p78
aS'/players/b/brownja02.html'
p79
aS'/players/b/brussni01.html'
p80
aS'/players/b/bullore01.html'
p81
aS'/players/b/burketr01.html'
p82
aS'/players/b/burksal01.html'
p83
aS'/players/b/butleji01.html'
p84
aS'/players/c/cabocbr01.html'
p85
aS'/players/c/caldejo01.html'
p86
aS'/players/c/caldejo01.html'
p87
aS'/players/c/caldejo01.html'
p88
aS'/players/c/caldwke01.html'
p89
aS'/players/c/canaais01.html'
p90
aS'/players/c/capelca01.html'
p91
aS'/players/c/carrode01.html'
p92
aS'/players/c/cartevi01.html'
p93
aS'/players/c/cartemi01.html'
p94
aS'/players/c/casspom01.html'
p95
aS'/players/c/casspom01.html'
p96
aS'/players/c/casspom01.html'
p97
aS'/players/c/casspom01.html'
p98
aS'/players/c/caulewi01.html'
p99
aS'/players/c/chandty01.html'
p100
aS'/players/c/chandwi01.html'
p101
aS'/players/c/chrisma01.html'
p102
aS'/players/c/chrisra01.html'
p103
aS'/players/c/chrisse01.html'
p104
aS'/players/c/clarkia01.html'
p105
aS'/players/c/clarkjo01.html'
p106
aS'/players/c/coleno01.html'
p107
aS'/players/c/collida01.html'
p108
aS'/players/c/collini01.html'
p109
aS'/players/c/conlemi01.html'
p110
aS'/players/c/connapa01.html'
p111
aS'/players/c/cookqu01.html'
p112
aS'/players/c/cookqu01.html'
p113
aS'/players/c/cookqu01.html'
p114
aS'/players/c/couside01.html'
p115
aS'/players/c/couside01.html'
p116
aS'/players/c/couside01.html'
p117
aS'/players/c/covinro01.html'
p118
aS'/players/c/crabbal01.html'
p119
aS'/players/c/crawfja01.html'
p120
aS'/players/c/crawfjo02.html'
p121
aS'/players/c/crowdja01.html'
p122
aS'/players/c/cunnida01.html'
p123
aS'/players/c/curryse01.html'
p124
aS'/players/c/curryst01.html'
p125
aS'/players/d/danietr01.html'
p126
aS'/players/d/davisan02.html'
p127
aS'/players/d/davisde01.html'
p128
aS'/players/d/davised01.html'
p129
aS'/players/d/dedmode01.html'
p130
aS'/players/d/dekkesa01.html'
p131
aS'/players/d/delanma01.html'
p132
aS'/players/d/dellama01.html'
p133
aS'/players/d/denglu01.html'
p134
aS'/players/d/derozde01.html'
p135
aS'/players/d/diallch01.html'
p136
aS'/players/d/diawbo01.html'
p137
aS'/players/d/dienggo01.html'
p138
aS'/players/d/dinwisp01.html'
p139
aS'/players/d/douglto01.html'
p140
aS'/players/d/dragigo01.html'
p141
aS'/players/d/drumman01.html'
p142
aS'/players/d/dudleja01.html'
p143
aS'/players/d/dunlemi02.html'
p144
aS'/players/d/dunlemi02.html'
p145
aS'/players/d/dunlemi02.html'
p146
aS'/players/d/dunnkr01.html'
p147
aS'/players/d/duranke01.html'
p148
aS'/players/e/eddieja01.html'
p149
aS'/players/e/ellenhe01.html'
p150
aS'/players/e/ellinwa01.html'
p151
aS'/players/e/ellismo01.html'
p152
aS'/players/e/embiijo01.html'
p153
aS'/players/e/ennisja01.html'
p154
aS'/players/e/ennisty01.html'
p155
aS'/players/e/ennisty01.html'
p156
aS'/players/e/ennisty01.html'
p157
aS'/players/e/evansty01.html'
p158
aS'/players/e/evansty01.html'
p159
aS'/players/e/evansty01.html'
p160
aS'/players/e/exumda01.html'
p161
aS'/players/f/farieke01.html'
p162
aS'/players/f/farmajo01.html'
p163
aS'/players/f/favorde01.html'
p164
aS'/players/f/feldeka01.html'
p165
aS'/players/f/feliccr01.html'
p166
aS'/players/f/feltora01.html'
p167
aS'/players/f/ferreyo01.html'
p168
aS'/players/f/ferreyo01.html'
p169
aS'/players/f/ferreyo01.html'
p170
aS'/players/f/finnedo01.html'
p171
aS'/players/f/forbebr01.html'
p172
aS'/players/f/fournev01.html'
p173
aS'/players/f/foyera01.html'
p174
aS'/players/f/fraziti01.html'
p175
aS'/players/f/fryech01.html'
p176
aS'/players/g/gallida01.html'
p177
aS'/players/g/gallola01.html'
p178
aS'/players/g/gallola01.html'
p179
aS'/players/g/gallola01.html'
p180
aS'/players/g/garinpa01.html'
p181
aS'/players/g/gasolma01.html'
p182
aS'/players/g/gasolpa01.html'
p183
aS'/players/g/gayru01.html'
p184
aS'/players/g/gbinimi01.html'
p185
aS'/players/g/geeal01.html'
p186
aS'/players/g/georgpa01.html'
p187
aS'/players/g/georgma01.html'
p188
aS'/players/g/gibsojo01.html'
p189
aS'/players/g/gibsota01.html'
p190
aS'/players/g/gibsota01.html'
p191
aS'/players/g/gibsota01.html'
p192
aS'/players/g/ginobma01.html'
p193
aS'/players/g/goberru01.html'
p194
aS'/players/g/goodwar01.html'
p195
aS'/players/g/goodwar01.html'
p196
aS'/players/g/goodwar01.html'
p197
aS'/players/g/gordoaa01.html'
p198
aS'/players/g/gordoer01.html'
p199
aS'/players/g/gortama01.html'
p200
aS'/players/g/grahatr01.html'
p201
aS'/players/g/grantje01.html'
p202
aS'/players/g/grantje01.html'
p203
aS'/players/g/grantje01.html'
p204
aS'/players/g/grantje02.html'
p205
aS'/players/g/greenda02.html'
p206
aS'/players/g/greendr01.html'
p207
aS'/players/g/greenge01.html'
p208
aS'/players/g/greenja01.html'
p209
aS'/players/g/greenje02.html'
p210
aS'/players/g/griffbl01.html'
p211
aS'/players/h/hamilju01.html'
p212
aS'/players/h/hammoaj01.html'
p213
aS'/players/h/hardati02.html'
p214
aS'/players/h/hardeja01.html'
p215
aS'/players/h/harklma01.html'
p216
aS'/players/h/harpeju01.html'
p217
aS'/players/h/harremo01.html'
p218
aS'/players/h/harride01.html'
p219
aS'/players/h/harriga01.html'
p220
aS'/players/h/harrijo01.html'
p221
aS'/players/h/harrima01.html'
p222
aS'/players/h/harrito02.html'
p223
aS'/players/h/harriaa01.html'
p224
aS'/players/h/harrian01.html'
p225
aS'/players/h/hasleud01.html'
p226
aS'/players/h/hawessp01.html'
p227
aS'/players/h/hawessp01.html'
p228
aS'/players/h/hawessp01.html'
p229
aS'/players/h/haywago01.html'
p230
aS'/players/h/hendege02.html'
p231
aS'/players/h/hensojo01.html'
p232
aS'/players/h/hernaju01.html'
p233
aS'/players/h/hernawi01.html'
p234
aS'/players/h/hezonma01.html'
p235
aS'/players/h/hibbero01.html'
p236
aS'/players/h/hibbero01.html'
p237
aS'/players/h/hibbero01.html'
p238
aS'/players/h/hieldbu01.html'
p239
aS'/players/h/hieldbu01.html'
p240
aS'/players/h/hieldbu01.html'
p241
aS'/players/h/hilarne01.html'
p242
aS'/players/h/hillge01.html'
p243
aS'/players/h/hilljo01.html'
p244
aS'/players/h/hillso01.html'
p245
aS'/players/h/hillida01.html'
p246
aS'/players/h/holidjr01.html'
p247
aS'/players/h/holidju01.html'
p248
aS'/players/h/holliro01.html'
p249
aS'/players/h/holmeri01.html'
p250
aS'/players/h/hoodro01.html'
p251
aS'/players/h/horfoal01.html'
p252
aS'/players/h/houseda01.html'
p253
aS'/players/h/howardw01.html'
p254
aS'/players/h/huertma01.html'
p255
aS'/players/h/huestjo01.html'
p256
aS'/players/h/humphkr01.html'
p257
aS'/players/h/hunterj01.html'
p258
aS'/players/i/ibakase01.html'
p259
aS'/players/i/ibakase01.html'
p260
aS'/players/i/ibakase01.html'
p261
aS'/players/i/iguodan01.html'
p262
aS'/players/i/ilyaser01.html'
p263
aS'/players/i/ilyaser01.html'
p264
aS'/players/i/ilyaser01.html'
p265
aS'/players/i/ilyaser01.html'
p266
aS'/players/i/inglejo01.html'
p267
aS'/players/i/ingrabr01.html'
p268
aS'/players/i/irvinky01.html'
p269
aS'/players/j/jackja01.html'
p270
aS'/players/j/jacksde01.html'
p271
aS'/players/j/jackspi01.html'
p272
aS'/players/j/jacksre01.html'
p273
aS'/players/j/jamesle01.html'
p274
aS'/players/j/jeffeal01.html'
p275
aS'/players/j/jefferi01.html'
p276
aS'/players/j/jenkijo01.html'
p277
aS'/players/j/jennibr01.html'
p278
aS'/players/j/jennibr01.html'
p279
aS'/players/j/jennibr01.html'
p280
aS'/players/j/jerebjo01.html'
p281
aS'/players/j/johnsam01.html'
p282
aS'/players/j/johnsbr02.html'
p283
aS'/players/j/johnsja01.html'
p284
aS'/players/j/johnsjo02.html'
p285
aS'/players/j/johnsst04.html'
p286
aS'/players/j/johnsty01.html'
p287
aS'/players/j/johnswe01.html'
p288
aS'/players/j/jokicni01.html'
p289
aS'/players/j/jonesda03.html'
p290
aS'/players/j/jonesde02.html'
p291
aS'/players/j/jonesja02.html'
p292
aS'/players/j/joneste01.html'
p293
aS'/players/j/joneste01.html'
p294
aS'/players/j/joneste01.html'
p295
aS'/players/j/jonesty01.html'
p296
aS'/players/j/jordade01.html'
p297
aS'/players/j/josepco01.html'
p298
aS'/players/k/kaminfr01.html'
p299
aS'/players/k/kanteen01.html'
p300
aS'/players/k/kellyry01.html'
p301
aS'/players/k/kiddgmi01.html'
p302
aS'/players/k/kilpase01.html'
p303
aS'/players/k/knighbr03.html'
p304
aS'/players/k/korveky01.html'
p305
aS'/players/k/korveky01.html'
p306
aS'/players/k/korveky01.html'
p307
aS'/players/k/koufoko01.html'
p308
aS'/players/k/kuzmimi01.html'
p309
aS'/players/l/labissk01.html'
p310
aS'/players/l/lambje01.html'
p311
aS'/players/l/laproni01.html'
p312
aS'/players/l/lauvejo01.html'
p313
aS'/players/l/lauvejo01.html'
p314
aS'/players/l/lauvejo01.html'
p315
aS'/players/l/lavinza01.html'
p316
aS'/players/l/lawsoty01.html'
p317
aS'/players/l/laymaja01.html'
p318
aS'/players/l/leeco01.html'
p319
aS'/players/l/leeda02.html'
p320
aS'/players/l/lenal01.html'
p321
aS'/players/l/leonaka01.html'
p322
aS'/players/l/leoname01.html'
p323
aS'/players/l/leuerjo01.html'
p324
aS'/players/l/leverca01.html'
p325
aS'/players/l/liggide01.html'
p326
aS'/players/l/lillada01.html'
p327
aS'/players/l/linje01.html'
p328
aS'/players/l/livinsh01.html'
p329
aS'/players/l/longsh01.html'
p330
aS'/players/l/looneke01.html'
p331
aS'/players/l/lopezbr01.html'
p332
aS'/players/l/lopezro01.html'
p333
aS'/players/l/loveke01.html'
p334
aS'/players/l/lowryky01.html'
p335
aS'/players/l/lucasjo02.html'
p336
aS'/players/l/luwawti01.html'
p337
aS'/players/l/lylestr01.html'
p338
aS'/players/m/macksh01.html'
p339
aS'/players/m/mahinia01.html'
p340
aS'/players/m/makerth01.html'
p341
aS'/players/m/marjabo01.html'
p342
aS'/players/m/martija01.html'
p343
aS'/players/m/matthwe02.html'
p344
aS'/players/m/mbahalu01.html'
p345
aS'/players/m/mcadoja01.html'
p346
aS'/players/m/mccawpa01.html'
p347
aS'/players/m/mcclesh01.html'
p348
aS'/players/m/mccolcj01.html'
p349
aS'/players/m/mccontj01.html'
p350
aS'/players/m/mcculch01.html'
p351
aS'/players/m/mcculch01.html'
p352
aS'/players/m/mcculch01.html'
p353
aS'/players/m/mcdankj01.html'
p354
aS'/players/m/mcdankj01.html'
p355
aS'/players/m/mcdankj01.html'
p356
aS'/players/m/mcderdo01.html'
p357
aS'/players/m/mcderdo01.html'
p358
aS'/players/m/mcderdo01.html'
p359
aS'/players/m/mcgeeja01.html'
p360
aS'/players/m/mcgruro01.html'
p361
aS'/players/m/mclembe01.html'
p362
aS'/players/m/mcraejo01.html'
p363
aS'/players/m/mcrobjo01.html'
p364
aS'/players/m/meeksjo01.html'
p365
aS'/players/m/mejrisa01.html'
p366
aS'/players/m/mickejo01.html'
p367
aS'/players/m/middlkh01.html'
p368
aS'/players/m/milescj01.html'
p369
aS'/players/m/millemi01.html'
p370
aS'/players/m/millspa02.html'
p371
aS'/players/m/millsel01.html'
p372
aS'/players/m/millspa01.html'
p373
aS'/players/m/mirotni01.html'
p374
aS'/players/m/monrogr01.html'
p375
aS'/players/m/mooreet01.html'
p376
aS'/players/m/morrima03.html'
p377
aS'/players/m/morrima02.html'
p378
aS'/players/m/morroan01.html'
p379
aS'/players/m/morroan01.html'
p380
aS'/players/m/morroan01.html'
p381
aS'/players/m/motiedo01.html'
p382
aS'/players/m/mozgoti01.html'
p383
aS'/players/m/mudiaem01.html'
p384
aS'/players/m/muhamsh01.html'
p385
aS'/players/m/murrade01.html'
p386
aS'/players/m/murraja01.html'
p387
aS'/players/m/muscami01.html'
p388
aS'/players/n/nancela02.html'
p389
aS'/players/n/napiesh01.html'
p390
aS'/players/n/ndourma01.html'
p391
aS'/players/n/nealga01.html'
p392
aS'/players/n/nelsoja01.html'
p393
aS'/players/n/netora01.html'
p394
aS'/players/n/niangge01.html'
p395
aS'/players/n/nichoan01.html'
p396
aS'/players/n/nichoan01.html'
p397
aS'/players/n/nichoan01.html'
p398
aS'/players/n/noahjo01.html'
p399
aS'/players/n/noelne01.html'
p400
aS'/players/n/noelne01.html'
p401
aS'/players/n/noelne01.html'
p402
aS'/players/n/noguelu01.html'
p403
aS'/players/n/novakst01.html'
p404
aS'/players/n/nowitdi01.html'
p405
aS'/players/n/nurkiju01.html'
p406
aS'/players/n/nurkiju01.html'
p407
aS'/players/n/nurkiju01.html'
p408
aS'/players/n/nwabada01.html'
p409
aS'/players/o/obryajo01.html'
p410
aS'/players/o/obryajo01.html'
p411
aS'/players/o/obryajo01.html'
p412
aS'/players/o/oquinky01.html'
p413
aS'/players/o/ochefda01.html'
p414
aS'/players/o/okafoja01.html'
p415
aS'/players/o/oladivi01.html'
p416
aS'/players/o/olynyke01.html'
p417
aS'/players/o/onuakar01.html'
p418
aS'/players/o/onuakch01.html'
p419
aS'/players/o/oubreke01.html'
p420
aS'/players/p/pachuza01.html'
p421
aS'/players/p/papagge01.html'
p422
aS'/players/p/parkeja01.html'
p423
aS'/players/p/parketo01.html'
p424
aS'/players/p/parsoch01.html'
p425
aS'/players/p/pattela01.html'
p426
aS'/players/p/pattepa01.html'
p427
aS'/players/p/paulch01.html'
p428
aS'/players/p/paynead01.html'
p429
aS'/players/p/payneca01.html'
p430
aS'/players/p/payneca01.html'
p431
aS'/players/p/payneca01.html'
p432
aS'/players/p/paytoel01.html'
p433
aS'/players/p/paytoga02.html'
p434
aS'/players/p/piercpa01.html'
p435
aS'/players/p/plumlma02.html'
p436
aS'/players/p/plumlma01.html'
p437
aS'/players/p/plumlma01.html'
p438
aS'/players/p/plumlma01.html'
p439
aS'/players/p/plumlmi01.html'
p440
aS'/players/p/plumlmi01.html'
p441
aS'/players/p/plumlmi01.html'
p442
aS'/players/p/poeltja01.html'
p443
aS'/players/p/porteot01.html'
p444
aS'/players/p/portibo01.html'
p445
aS'/players/p/porzikr01.html'
p446
aS'/players/p/poweldw01.html'
p447
aS'/players/p/powelno01.html'
p448
aS'/players/p/poythal01.html'
p449
aS'/players/p/pricero01.html'
p450
aS'/players/q/quartti01.html'
p451
aS'/players/r/randlch01.html'
p452
aS'/players/r/randlch01.html'
p453
aS'/players/r/randlch01.html'
p454
aS'/players/r/randlju01.html'
p455
aS'/players/r/randoza01.html'
p456
aS'/players/r/redicjj01.html'
p457
aS'/players/r/reedwi02.html'
p458
aS'/players/r/richajo01.html'
p459
aS'/players/r/richama01.html'
p460
aS'/players/r/riverau01.html'
p461
aS'/players/r/roberan03.html'
p462
aS'/players/r/roberbr01.html'
p463
aS'/players/r/robingl02.html'
p464
aS'/players/r/robinth01.html'
p465
aS'/players/r/rodrise01.html'
p466
aS'/players/r/rondora01.html'
p467
aS'/players/r/rosede01.html'
p468
aS'/players/r/rosste01.html'
p469
aS'/players/r/rosste01.html'
p470
aS'/players/r/rosste01.html'
p471
aS'/players/r/roziete01.html'
p472
aS'/players/r/rubiori01.html'
p473
aS'/players/r/rudezda01.html'
p474
aS'/players/r/rushbr01.html'
p475
aS'/players/r/russeda01.html'
p476
aS'/players/s/sabondo01.html'
p477
aS'/players/s/sandela01.html'
p478
aS'/players/s/saricda01.html'
p479
aS'/players/s/satorto01.html'
p480
aS'/players/s/schrode01.html'
p481
aS'/players/s/scolalu01.html'
p482
aS'/players/s/scottmi01.html'
p483
aS'/players/s/sefolth01.html'
p484
aS'/players/s/seldewa01.html'
p485
aS'/players/s/seldewa01.html'
p486
aS'/players/s/seldewa01.html'
p487
aS'/players/s/serapke01.html'
p488
aS'/players/s/sessira01.html'
p489
aS'/players/s/shumpim01.html'
p490
aS'/players/s/siakapa01.html'
p491
aS'/players/s/simmojo02.html'
p492
aS'/players/s/singlky01.html'
p493
aS'/players/s/smartma01.html'
p494
aS'/players/s/smithis01.html'
p495
aS'/players/s/smithjr01.html'
p496
aS'/players/s/smithja02.html'
p497
aS'/players/s/snellto01.html'
p498
aS'/players/s/speigma01.html'
p499
aS'/players/s/splitti01.html'
p500
aS'/players/s/stausni01.html'
p501
aS'/players/s/stephla01.html'
p502
aS'/players/s/stephla01.html'
p503
aS'/players/s/stephla01.html'
p504
aS'/players/s/stephla01.html'
p505
aS'/players/s/stokeja01.html'
p506
aS'/players/s/stonedi01.html'
p507
aS'/players/s/stuckro01.html'
p508
aS'/players/s/sullija01.html'
p509
aS'/players/t/tavarwa01.html'
p510
aS'/players/t/taylois01.html'
p511
aS'/players/t/teaguje01.html'
p512
aS'/players/t/teletmi01.html'
p513
aS'/players/t/templga01.html'
p514
aS'/players/t/terryja01.html'
p515
aS'/players/t/thomais02.html'
p516
aS'/players/t/thomala01.html'
p517
aS'/players/t/thompho01.html'
p518
aS'/players/t/thompho01.html'
p519
aS'/players/t/thompho01.html'
p520
aS'/players/t/thompkl01.html'
p521
aS'/players/t/thomptr01.html'
p522
aS'/players/t/thornma01.html'
p523
aS'/players/t/tobeymi01.html'
p524
aS'/players/t/tollian01.html'
p525
aS'/players/t/toupaax01.html'
p526
aS'/players/t/townska01.html'
p527
aS'/players/t/tuckepj01.html'
p528
aS'/players/t/tuckepj01.html'
p529
aS'/players/t/tuckepj01.html'
p530
aS'/players/t/turneev01.html'
p531
aS'/players/t/turnemy01.html'
p532
aS'/players/u/udrihbe01.html'
p533
aS'/players/u/ulisty01.html'
p534
aS'/players/u/uthofja01.html'
p535
aS'/players/v/valanjo01.html'
p536
aS'/players/v/valende01.html'
p537
aS'/players/v/vanvlfr01.html'
p538
aS'/players/v/varejan01.html'
p539
aS'/players/v/vasqugr01.html'
p540
aS'/players/v/vaughra01.html'
p541
aS'/players/v/vonleno01.html'
p542
aS'/players/v/vucevni01.html'
p543
aS'/players/v/vujacsa01.html'
p544
aS'/players/w/wadedw01.html'
p545
aS'/players/w/waitedi01.html'
p546
aS'/players/w/walkeke02.html'
p547
aS'/players/w/walljo01.html'
p548
aS'/players/p/princta02.html'
p549
aS'/players/w/warretj01.html'
p550
aS'/players/w/watsocj01.html'
p551
aS'/players/w/weberbr01.html'
p552
aS'/players/w/weberbr01.html'
p553
aS'/players/w/weberbr01.html'
p554
aS'/players/w/westda01.html'
p555
aS'/players/w/westbru01.html'
p556
aS'/players/w/whiteok01.html'
p557
aS'/players/w/whiteis01.html'
p558
aS'/players/w/whiteha01.html'
p559
aS'/players/w/wiggian01.html'
p560
aS'/players/w/wilcocj01.html'
p561
aS'/players/w/willial03.html'
p562
aS'/players/w/willide01.html'
p563
aS'/players/w/willide01.html'
p564
aS'/players/w/willide01.html'
p565
aS'/players/w/willide02.html'
p566
aS'/players/w/willide02.html'
p567
aS'/players/w/willide02.html'
p568
aS'/players/w/willilo02.html'
p569
aS'/players/w/willilo02.html'
p570
aS'/players/w/willilo02.html'
p571
aS'/players/w/willima02.html'
p572
aS'/players/w/willire02.html'
p573
aS'/players/w/willitr02.html'
p574
aS'/players/w/willitr02.html'
p575
aS'/players/w/willitr02.html'
p576
aS'/players/w/wiltjky01.html'
p577
aS'/players/w/winslju01.html'
p578
aS'/players/w/witheje01.html'
p579
aS'/players/w/woodch01.html'
p580
aS'/players/a/artesro01.html'
p581
aS'/players/w/wrighbr03.html'
p582
aS'/players/w/wrighde01.html'
p583
aS'/players/y/youngja01.html'
p584
aS'/players/y/youngjo01.html'
p585
aS'/players/y/youngni01.html'
p586
aS'/players/y/youngth01.html'
p587
aS'/players/z/zelleco01.html'
p588
aS'/players/z/zellety01.html'
p589
aS'/players/z/zimmest01.html'
p590
aS'/players/z/zipsepa01.html'
p591
aS'/players/z/zubaciv01.html'
p592
aS'/players/b/bryanko01.html'
p593
aS'/players/c/curryst01.html'
p594
aS'/players/j/jamesle01.html'
p595
aS'/players/h/hardeja01.html'
p596
aS'/players/d/duranke01.html'
p597
aS'/players/h/howardw01.html'
p598
aS'/players/a/abdulka01.html'
p599
aS'/players/c/chambwi01.html'
p600
aS'/players/m/malonka01.html'
p601
aS'/players/j/jordami01.html'
p602
aS'/players/s/stockjo01.html'
p603
aS'/players/d/duncati01.html'
p604
aS'/players/c/curryst01.html'
p605
aS'/players/n/nowitdi01.html'
p606
aS'/players/j/jamesle01.html'
p607
aS'/players/w/westbru01.html'
p608
aS'/players/l/leonaka01.html'
p609
aS'/players/d/duranke01.html'
p610
a.